target datalayout = "e-m:e-p270:32:32-p271:32:32-p272:64:64-i64:64-i128:128-f80:128-n8:16:32:64-S128"
target triple = "x86_64-pc-linux-gnu"

%struct.MRIStepCouplingMem = type { i32, i32, i32, i32, i32, ptr, ptr, ptr, i32, ptr }

; Function Attrs: nounwind uwtable
define void @MRIStepCoupling_Space(ptr noundef %0, ptr noundef %1, ptr noundef %2) #0 {
  %4 = alloca ptr, align 8
  %5 = alloca ptr, align 8
  %6 = alloca ptr, align 8
  store ptr %0, ptr %4, align 8, !tbaa !15
  store ptr %1, ptr %5, align 8, !tbaa !44
  store ptr %2, ptr %6, align 8, !tbaa !44
  %7 = load ptr, ptr %5, align 8, !tbaa !44
  store i64 0, ptr %7, align 8, !tbaa !46
  %8 = load ptr, ptr %6, align 8, !tbaa !44
  store i64 0, ptr %8, align 8, !tbaa !46
  %9 = load ptr, ptr %4, align 8, !tbaa !15
  %10 = icmp ne ptr %9, null
  br i1 %10, label %12, label %11

11:                                               ; preds = %3
  br label %87

12:                                               ; preds = %3
  %13 = load ptr, ptr %5, align 8, !tbaa !44
  store i64 5, ptr %13, align 8, !tbaa !46
  %14 = load ptr, ptr %4, align 8, !tbaa !15
  %15 = getelementptr inbounds nuw %struct.MRIStepCouplingMem, ptr %14, i32 0, i32 5
  %16 = load ptr, ptr %15, align 8, !tbaa !22
  %17 = icmp ne ptr %16, null
  br i1 %17, label %18, label %26

18:                                               ; preds = %12
  %19 = load ptr, ptr %4, align 8, !tbaa !15
  %20 = getelementptr inbounds nuw %struct.MRIStepCouplingMem, ptr %19, i32 0, i32 2
  %21 = load i32, ptr %20, align 8, !tbaa !41
  %22 = sext i32 %21 to i64
  %23 = load ptr, ptr %6, align 8, !tbaa !44
  %24 = load i64, ptr %23, align 8, !tbaa !46
  %25 = add nsw i64 %24, %22
  store i64 %25, ptr %23, align 8, !tbaa !46
  br label %26

26:                                               ; preds = %18, %12
  %27 = load ptr, ptr %4, align 8, !tbaa !15
  %28 = getelementptr inbounds nuw %struct.MRIStepCouplingMem, ptr %27, i32 0, i32 6
  %29 = load ptr, ptr %28, align 8, !tbaa !25
  %30 = icmp ne ptr %29, null
  br i1 %30, label %31, label %48

31:                                               ; preds = %26
  %32 = load ptr, ptr %4, align 8, !tbaa !15
  %33 = getelementptr inbounds nuw %struct.MRIStepCouplingMem, ptr %32, i32 0, i32 1
  %34 = load i32, ptr %33, align 4, !tbaa !40
  %35 = load ptr, ptr %4, align 8, !tbaa !15
  %36 = getelementptr inbounds nuw %struct.MRIStepCouplingMem, ptr %35, i32 0, i32 2
  %37 = load i32, ptr %36, align 8, !tbaa !41
  %38 = add nsw i32 %37, 1
  %39 = mul nsw i32 %34, %38
  %40 = load ptr, ptr %4, align 8, !tbaa !15
  %41 = getelementptr inbounds nuw %struct.MRIStepCouplingMem, ptr %40, i32 0, i32 2
  %42 = load i32, ptr %41, align 8, !tbaa !41
  %43 = mul nsw i32 %39, %42
  %44 = sext i32 %43 to i64
  %45 = load ptr, ptr %6, align 8, !tbaa !44
  %46 = load i64, ptr %45, align 8, !tbaa !46
  %47 = add nsw i64 %46, %44
  store i64 %47, ptr %45, align 8, !tbaa !46
  br label %48

48:                                               ; preds = %31, %26
  %49 = load ptr, ptr %4, align 8, !tbaa !15
  %50 = getelementptr inbounds nuw %struct.MRIStepCouplingMem, ptr %49, i32 0, i32 7
  %51 = load ptr, ptr %50, align 8, !tbaa !28
  %52 = icmp ne ptr %51, null
  br i1 %52, label %53, label %70

53:                                               ; preds = %48
  %54 = load ptr, ptr %4, align 8, !tbaa !15
  %55 = getelementptr inbounds nuw %struct.MRIStepCouplingMem, ptr %54, i32 0, i32 1
  %56 = load i32, ptr %55, align 4, !tbaa !40
  %57 = load ptr, ptr %4, align 8, !tbaa !15
  %58 = getelementptr inbounds nuw %struct.MRIStepCouplingMem, ptr %57, i32 0, i32 2
  %59 = load i32, ptr %58, align 8, !tbaa !41
  %60 = add nsw i32 %59, 1
  %61 = mul nsw i32 %56, %60
  %62 = load ptr, ptr %4, align 8, !tbaa !15
  %63 = getelementptr inbounds nuw %struct.MRIStepCouplingMem, ptr %62, i32 0, i32 2
  %64 = load i32, ptr %63, align 8, !tbaa !41
  %65 = mul nsw i32 %61, %64
  %66 = sext i32 %65 to i64
  %67 = load ptr, ptr %6, align 8, !tbaa !44
  %68 = load i64, ptr %67, align 8, !tbaa !46
  %69 = add nsw i64 %68, %66
  store i64 %69, ptr %67, align 8, !tbaa !46
  br label %70

70:                                               ; preds = %53, %48
  %71 = load ptr, ptr %4, align 8, !tbaa !15
  %72 = getelementptr inbounds nuw %struct.MRIStepCouplingMem, ptr %71, i32 0, i32 9
  %73 = load ptr, ptr %72, align 8, !tbaa !34
  %74 = icmp ne ptr %73, null
  br i1 %74, label %75, label %87

75:                                               ; preds = %70
  %76 = load ptr, ptr %4, align 8, !tbaa !15
  %77 = getelementptr inbounds nuw %struct.MRIStepCouplingMem, ptr %76, i32 0, i32 2
  %78 = load i32, ptr %77, align 8, !tbaa !41
  %79 = load ptr, ptr %4, align 8, !tbaa !15
  %80 = getelementptr inbounds nuw %struct.MRIStepCouplingMem, ptr %79, i32 0, i32 2
  %81 = load i32, ptr %80, align 8, !tbaa !41
  %82 = mul nsw i32 %78, %81
  %83 = sext i32 %82 to i64
  %84 = load ptr, ptr %5, align 8, !tbaa !44
  %85 = load i64, ptr %84, align 8, !tbaa !46
  %86 = add nsw i64 %85, %83
  store i64 %86, ptr %84, align 8, !tbaa !46
  br label %87

87:                                               ; preds = %11, %75, %70
  ret void
}