; Function Attrs: mustprogress nofree norecurse nosync nounwind willreturn memory(argmem: readwrite) uwtable
define void @MRIStepCoupling_Space(ptr noundef readonly captures(address_is_null) %0, ptr noundef captures(none) initializes((0, 8)) %1, ptr noundef captures(none) initializes((0, 8)) %2) local_unnamed_addr #6 {
  store i64 0, ptr %1, align 8, !tbaa !38
  store i64 0, ptr %2, align 8, !tbaa !38
  %.not = icmp eq ptr %0, null
  br i1 %.not, label %51, label %4

4:                                                ; preds = %3
  store i64 5, ptr %1, align 8, !tbaa !38
  %5 = getelementptr inbounds nuw i8, ptr %0, i64 24
  %6 = load ptr, ptr %5, align 8, !tbaa !17
  %.not21 = icmp eq ptr %6, null
  br i1 %.not21, label %13, label %7

7:                                                ; preds = %4
  %8 = getelementptr inbounds nuw i8, ptr %0, i64 8
  %9 = load i32, ptr %8, align 8, !tbaa !37
  %10 = sext i32 %9 to i64
  %11 = load i64, ptr %2, align 8, !tbaa !38
  %12 = add nsw i64 %11, %10
  store i64 %12, ptr %2, align 8, !tbaa !38
  br label %13

13:                                               ; preds = %7, %4
  %14 = getelementptr inbounds nuw i8, ptr %0, i64 32
  %15 = load ptr, ptr %14, align 8, !tbaa !20
  %.not22 = icmp eq ptr %15, null
  br i1 %.not22, label %27, label %16

16:                                               ; preds = %13
  %17 = getelementptr inbounds nuw i8, ptr %0, i64 4
  %18 = load i32, ptr %17, align 4, !tbaa !36
  %19 = getelementptr inbounds nuw i8, ptr %0, i64 8
  %20 = load i32, ptr %19, align 8, !tbaa !37
  %21 = add nsw i32 %20, 1
  %22 = mul i32 %20, %18
  %23 = mul i32 %22, %21
  %24 = sext i32 %23 to i64
  %25 = load i64, ptr %2, align 8, !tbaa !38
  %26 = add nsw i64 %25, %24
  store i64 %26, ptr %2, align 8, !tbaa !38
  br label %27

27:                                               ; preds = %16, %13
  %28 = getelementptr inbounds nuw i8, ptr %0, i64 40
  %29 = load ptr, ptr %28, align 8, !tbaa !23
  %.not23 = icmp eq ptr %29, null
  br i1 %.not23, label %41, label %30

30:                                               ; preds = %27
  %31 = getelementptr inbounds nuw i8, ptr %0, i64 4
  %32 = load i32, ptr %31, align 4, !tbaa !36
  %33 = getelementptr inbounds nuw i8, ptr %0, i64 8
  %34 = load i32, ptr %33, align 8, !tbaa !37
  %35 = add nsw i32 %34, 1
  %36 = mul i32 %34, %32
  %37 = mul i32 %36, %35
  %38 = sext i32 %37 to i64
  %39 = load i64, ptr %2, align 8, !tbaa !38
  %40 = add nsw i64 %39, %38
  store i64 %40, ptr %2, align 8, !tbaa !38
  br label %41

41:                                               ; preds = %30, %27
  %42 = getelementptr inbounds nuw i8, ptr %0, i64 56
  %43 = load ptr, ptr %42, align 8, !tbaa !29
  %.not24 = icmp eq ptr %43, null
  br i1 %.not24, label %51, label %44

44:                                               ; preds = %41
  %45 = getelementptr inbounds nuw i8, ptr %0, i64 8
  %46 = load i32, ptr %45, align 8, !tbaa !37
  %47 = mul nsw i32 %46, %46
  %48 = zext nneg i32 %47 to i64
  %49 = load i64, ptr %1, align 8, !tbaa !38
  %50 = add nsw i64 %49, %48
  store i64 %50, ptr %1, align 8, !tbaa !38
  br label %51

51:                                               ; preds = %3, %44, %41
  ret void
}